target datalayout = "e-m:e-p270:32:32-p271:32:32-p272:64:64-i64:64-i128:128-f80:128-n8:16:32:64-S128"
target triple = "x86_64-pc-linux-gnu"

; Function Attrs: mustprogress nounwind uwtable
define dso_local noundef double @_ZN4absl15random_internal4betaEdd(double noundef %0, double noundef %1) #0 {
  %3 = alloca double, align 8
  %4 = alloca double, align 8
  %5 = alloca double, align 8
  store double %0, ptr %3, align 8, !tbaa !11
  store double %1, ptr %4, align 8, !tbaa !11
  call void @llvm.lifetime.start.p0(i64 8, ptr %5) #12
  %6 = load double, ptr %3, align 8, !tbaa !11
  %7 = call double @lgamma(double noundef %6) #12
  %8 = load double, ptr %4, align 8, !tbaa !11
  %9 = call double @lgamma(double noundef %8) #12
  %10 = fadd double %7, %9
  %11 = load double, ptr %3, align 8, !tbaa !11
  %12 = load double, ptr %4, align 8, !tbaa !11
  %13 = fadd double %11, %12
  %14 = call double @lgamma(double noundef %13) #12
  %15 = fsub double %10, %14
  store double %15, ptr %5, align 8, !tbaa !11
  %16 = load double, ptr %5, align 8, !tbaa !11
  %17 = call double @exp(double noundef %16) #12, !tbaa !20
  call void @llvm.lifetime.end.p0(i64 8, ptr %5) #12
  ret double %17
}