; Function Attrs: mustprogress nounwind uwtable
define dso_local noundef double @_ZN4absl15random_internal4betaEdd(double noundef %0, double noundef %1) local_unnamed_addr #7 {
  %3 = tail call double @lgamma(double noundef %0) #15
  %4 = tail call double @lgamma(double noundef %1) #15
  %5 = fadd double %3, %4
  %6 = fadd double %0, %1
  %7 = tail call double @lgamma(double noundef %6) #15
  %8 = fsub double %5, %7
  %9 = tail call double @exp(double noundef %8) #15, !tbaa !12
  ret double %9
}